; Function Attrs: mustprogress uwtable
define dso_local void @_ZN17cmGlobalGenerator10EscapeJSONERKNSt7__cxx1112basic_stringIcSt11char_traitsIcESaIcEEE(ptr dead_on_unwind noalias nonnull writable sret(%"class.std::__cxx11::basic_string") align 8 %0, ptr noundef nonnull align 8 dereferenceable(32) %1) local_unnamed_addr #3 align 2 personality ptr @__gxx_personality_v0 {
  tail call void @_ZNSt7__cxx1112basic_stringIcSt11char_traitsIcESaIcEEC1Ev(ptr noundef nonnull align 8 dereferenceable(32) %0) #23
  %3 = tail call noundef i64 @_ZNKSt7__cxx1112basic_stringIcSt11char_traitsIcESaIcEE4sizeEv(ptr noundef nonnull align 8 dereferenceable(32) %1) #23
  invoke void @_ZNSt7__cxx1112basic_stringIcSt11char_traitsIcESaIcEE7reserveEm(ptr noundef nonnull align 8 dereferenceable(32) %0, i64 noundef %3)
          to label %4 unwind label %.loopexit.split-lp

4:                                                ; preds = %2
  %5 = tail call ptr @_ZNKSt7__cxx1112basic_stringIcSt11char_traitsIcESaIcEE5beginEv(ptr noundef nonnull align 8 dereferenceable(32) %1) #23
  %6 = tail call ptr @_ZNKSt7__cxx1112basic_stringIcSt11char_traitsIcESaIcEE3endEv(ptr noundef nonnull align 8 dereferenceable(32) %1) #23
  %.not12 = icmp eq ptr %5, %6
  br i1 %.not12, label %._crit_edge, label %.lr.ph

.lr.ph:                                           ; preds = %4, %15
  %.sroa.09.013 = phi ptr [ %16, %15 ], [ %5, %4 ]
  %7 = load i8, ptr %.sroa.09.013, align 1
  switch i8 %7, label %.invoke [
    i8 34, label %9
    i8 92, label %9
    i8 10, label %.invoke14
    i8 9, label %14
  ]

.loopexit:                                        ; preds = %.invoke14, %.invoke, %9
  %lpad.loopexit = landingpad { ptr, i32 }
          cleanup
  br label %8

.loopexit.split-lp:                               ; preds = %2
  %lpad.loopexit.split-lp = landingpad { ptr, i32 }
          cleanup
  br label %8

8:                                                ; preds = %.loopexit.split-lp, %.loopexit
  %lpad.phi = phi { ptr, i32 } [ %lpad.loopexit, %.loopexit ], [ %lpad.loopexit.split-lp, %.loopexit.split-lp ]
  tail call void @_ZNSt7__cxx1112basic_stringIcSt11char_traitsIcESaIcEED1Ev(ptr noundef nonnull align 8 dereferenceable(32) %0) #23
  resume { ptr, i32 } %lpad.phi

9:                                                ; preds = %.lr.ph, %.lr.ph
  %10 = invoke noundef nonnull align 8 dereferenceable(32) ptr @_ZNSt7__cxx1112basic_stringIcSt11char_traitsIcESaIcEEpLEc(ptr noundef nonnull align 8 dereferenceable(32) %0, i8 noundef signext 92)
          to label %.invoke unwind label %.loopexit

.invoke:                                          ; preds = %.lr.ph, %9
  %11 = invoke noundef nonnull align 8 dereferenceable(32) ptr @_ZNSt7__cxx1112basic_stringIcSt11char_traitsIcESaIcEEpLEc(ptr noundef nonnull align 8 dereferenceable(32) %0, i8 noundef signext %7)
          to label %15 unwind label %.loopexit

.invoke14:                                        ; preds = %.lr.ph, %14
  %12 = phi ptr [ @.str.284, %14 ], [ @.str.283, %.lr.ph ]
  %13 = invoke noundef nonnull align 8 dereferenceable(32) ptr @_ZNSt7__cxx1112basic_stringIcSt11char_traitsIcESaIcEEpLEPKc(ptr noundef nonnull align 8 dereferenceable(32) %0, ptr noundef nonnull %12)
          to label %15 unwind label %.loopexit

14:                                               ; preds = %.lr.ph
  br label %.invoke14

15:                                               ; preds = %.invoke14, %.invoke
  %16 = getelementptr inbounds i8, ptr %.sroa.09.013, i64 1
  %.not = icmp eq ptr %16, %6
  br i1 %.not, label %._crit_edge, label %.lr.ph

._crit_edge:                                      ; preds = %15, %4
  ret void
}